; Function Attrs: nounwind uwtable
define void @Libs_Init(ptr noundef %0) local_unnamed_addr #0 {
  tail call void @open_libs()
  %2 = load ptr, ptr @libHandles, align 16, !tbaa !6
  %.not7.i = icmp eq ptr %2, null
  br i1 %.not7.i, label %call_inits.exit, label %.lr.ph.i

.lr.ph.i:                                         ; preds = %1, %10
  %3 = phi ptr [ %12, %10 ], [ %2, %1 ]
  %indvars.iv.i = phi i64 [ %indvars.iv.next.i, %10 ], [ 0, %1 ]
  %4 = tail call ptr @dlsym(ptr noundef nonnull %3, ptr noundef nonnull @.str.8) #9
  %5 = icmp eq ptr %4, null
  br i1 %5, label %6, label %9

6:                                                ; preds = %.lr.ph.i
  %7 = trunc nuw nsw i64 %indvars.iv.i to i32
  %8 = tail call i32 (ptr, ...) @printf(ptr noundef nonnull dereferenceable(1) @.str.9, i32 noundef %7)
  br label %10

9:                                                ; preds = %.lr.ph.i
  tail call void %4(ptr noundef %0) #9
  br label %10

10:                                               ; preds = %9, %6
  %indvars.iv.next.i = add nuw nsw i64 %indvars.iv.i, 1
  %11 = getelementptr inbounds nuw [257 x ptr], ptr @libHandles, i64 0, i64 %indvars.iv.next.i
  %12 = load ptr, ptr %11, align 8, !tbaa !6
  %.not.i = icmp eq ptr %12, null
  br i1 %.not.i, label %call_inits.exit, label %.lr.ph.i, !llvm.loop !11

call_inits.exit:                                  ; preds = %10, %1
  ret void
}